; Function Attrs: nounwind uwtable
define internal range(i32 -1, 1) i32 @H5C__trace_write_resize_entry_log_msg(ptr noundef readonly captures(none) %0, ptr noundef readonly captures(none) %1, i64 noundef %2, i32 noundef %3) #0 {
  %5 = load i8, ptr @H5C_init_g, align 1, !tbaa !3, !range !7, !noundef !8
  %6 = trunc nuw i8 %5 to i1
  %7 = load i8, ptr @H5_libterm_g, align 1, !range !7
  %8 = trunc nuw i8 %7 to i1
  %9 = xor i1 %8, true
  %10 = select i1 %6, i1 true, i1 %9
  br i1 %10, label %11, label %H5C__trace_write_log_message.exit.thread, !prof !9

11:                                               ; preds = %4
  %12 = getelementptr inbounds nuw i8, ptr %0, i64 8
  %13 = load ptr, ptr %12, align 8, !tbaa !15
  %14 = getelementptr inbounds nuw i8, ptr %1, i64 8
  %15 = load i64, ptr %14, align 8, !tbaa !22
  %16 = trunc i64 %2 to i32
  %17 = tail call i32 (ptr, i64, ptr, ...) @snprintf(ptr noundef nonnull dereferenceable(1) %13, i64 noundef 4096, ptr noundef nonnull @.str.23, i64 noundef %15, i32 noundef %16, i32 noundef %3) #8
  %18 = load i8, ptr @H5C_init_g, align 1, !tbaa !3, !range !7, !noundef !8
  %19 = trunc nuw i8 %18 to i1
  %20 = load i8, ptr @H5_libterm_g, align 1, !range !7
  %21 = trunc nuw i8 %20 to i1
  %22 = xor i1 %21, true
  %23 = select i1 %19, i1 true, i1 %22
  br i1 %23, label %24, label %H5C__trace_write_log_message.exit.thread, !prof !9

24:                                               ; preds = %11
  %25 = load ptr, ptr %12, align 8, !tbaa !15
  %26 = tail call i64 @strlen(ptr noundef nonnull dereferenceable(1) %25) #9
  %27 = trunc i64 %26 to i32
  %28 = load ptr, ptr %0, align 8, !tbaa !21
  %29 = tail call i32 (ptr, ptr, ...) @fprintf(ptr noundef %28, ptr noundef nonnull @.str.3, ptr noundef nonnull %25) #8
  %.not.i = icmp eq i32 %29, %27
  br i1 %.not.i, label %30, label %32

30:                                               ; preds = %24
  %31 = load ptr, ptr %12, align 8, !tbaa !15
  tail call void @llvm.memset.p0.i64(ptr align 1 %31, i8 0, i64 %26, i1 false)
  br label %H5C__trace_write_log_message.exit.thread

32:                                               ; preds = %24
  %33 = load i64, ptr @H5E_CACHE_g, align 8, !tbaa !19
  %34 = load i64, ptr @H5E_LOGGING_g, align 8, !tbaa !19
  %35 = tail call i32 (ptr, ptr, i32, i64, i64, ptr, ...) @H5E_printf_stack(ptr noundef nonnull @.str, ptr noundef nonnull @__func__.H5C__trace_write_log_message, i32 noundef 168, i64 noundef %33, i64 noundef %34, ptr noundef nonnull @.str.12) #8
  %36 = load i64, ptr @H5E_CACHE_g, align 8, !tbaa !19
  %37 = load i64, ptr @H5E_LOGGING_g, align 8, !tbaa !19
  %38 = tail call i32 (ptr, ptr, i32, i64, i64, ptr, ...) @H5E_printf_stack(ptr noundef nonnull @.str, ptr noundef nonnull @__func__.H5C__trace_write_resize_entry_log_msg, i32 noundef 717, i64 noundef %36, i64 noundef %37, ptr noundef nonnull @.str.11) #8
  br label %H5C__trace_write_log_message.exit.thread

H5C__trace_write_log_message.exit.thread:         ; preds = %11, %30, %32, %4
  %.0 = phi i32 [ -1, %32 ], [ 0, %4 ], [ 0, %30 ], [ 0, %11 ]
  ret i32 %.0
}